target datalayout = "e-m:e-p270:32:32-p271:32:32-p272:64:64-i64:64-i128:128-f80:128-n8:16:32:64-S128"
target triple = "x86_64-pc-linux-gnu"

%struct.sockaddr = type { i16, [14 x i8] }

@.str.7 = private unnamed_addr constant [11 x i8] c"unknown:%d\00", align 1
@.str.8 = private unnamed_addr constant [12 x i8] c"getnameinfo\00", align 1

; Function Attrs: inlinehint nounwind sspstrong willreturn memory(none) uwtable
define internal i64 @RB_INT2FIX(i64 noundef %0) #6 {
  %2 = alloca i64, align 8
  %3 = alloca i64, align 8
  %4 = alloca i64, align 8
  %5 = alloca i64, align 8
  %6 = alloca i64, align 8
  %7 = alloca i64, align 8
  store i64 %0, ptr %2, align 8, !tbaa !31
  call void @llvm.lifetime.start.p0(i64 8, ptr %3) #24
  %8 = load i64, ptr %2, align 8, !tbaa !31
  store i64 %8, ptr %3, align 8, !tbaa !31
  call void @llvm.lifetime.start.p0(i64 8, ptr %4) #24
  %9 = load i64, ptr %3, align 8, !tbaa !31
  %10 = shl i64 %9, 1
  %11 = add i64 %10, 1
  store i64 %11, ptr %4, align 8, !tbaa !31
  call void @llvm.lifetime.start.p0(i64 8, ptr %5) #24
  %12 = load i64, ptr %4, align 8, !tbaa !31
  store i64 %12, ptr %5, align 8, !tbaa !31
  call void @llvm.lifetime.start.p0(i64 8, ptr %6) #24
  %13 = load i64, ptr %5, align 8, !tbaa !31
  store i64 %13, ptr %6, align 8, !tbaa !31
  call void @llvm.lifetime.start.p0(i64 8, ptr %7) #24
  %14 = load i64, ptr %6, align 8, !tbaa !31
  store i64 %14, ptr %7, align 8, !tbaa !31
  %15 = load i64, ptr %7, align 8, !tbaa !31
  call void @llvm.lifetime.end.p0(i64 8, ptr %7) #24
  call void @llvm.lifetime.end.p0(i64 8, ptr %6) #24
  call void @llvm.lifetime.end.p0(i64 8, ptr %5) #24
  call void @llvm.lifetime.end.p0(i64 8, ptr %4) #24
  call void @llvm.lifetime.end.p0(i64 8, ptr %3) #24
  ret i64 %15
}

; Function Attrs: inlinehint nounwind sspstrong willreturn memory(read) uwtable
define available_externally i32 @atoi(ptr noundef nonnull %0) #13 {
  %2 = alloca ptr, align 8
  store ptr %0, ptr %2, align 8, !tbaa !30
  %3 = load ptr, ptr %2, align 8, !tbaa !30
  %4 = call i64 @strtol(ptr noundef %3, ptr noundef null, i32 noundef 10) #24
  %5 = trunc i64 %4 to i32
  ret i32 %5
}

; Function Attrs: nounwind sspstrong uwtable
define i64 @rsock_ipaddr(ptr noundef %0, i32 noundef %1, i32 noundef %2) #0 {
  %4 = alloca ptr, align 8
  %5 = alloca i32, align 4
  %6 = alloca i32, align 4
  %7 = alloca i64, align 8
  %8 = alloca i64, align 8
  %9 = alloca i64, align 8
  %10 = alloca i64, align 8
  %11 = alloca i64, align 8
  %12 = alloca i32, align 4
  %13 = alloca [1024 x i8], align 16
  %14 = alloca [1024 x i8], align 16
  %15 = alloca i64, align 8
  store ptr %0, ptr %4, align 8, !tbaa !29
  store i32 %1, ptr %5, align 4, !tbaa !27
  store i32 %2, ptr %6, align 4, !tbaa !27
  call void @llvm.lifetime.start.p0(i64 8, ptr %7) #24
  call void @llvm.lifetime.start.p0(i64 8, ptr %8) #24
  call void @llvm.lifetime.start.p0(i64 8, ptr %9) #24
  call void @llvm.lifetime.start.p0(i64 8, ptr %10) #24
  call void @llvm.lifetime.start.p0(i64 8, ptr %11) #24
  call void @llvm.lifetime.start.p0(i64 4, ptr %12) #24
  call void @llvm.lifetime.start.p0(i64 1024, ptr %13) #24
  call void @llvm.lifetime.start.p0(i64 1024, ptr %14) #24
  call void @llvm.lifetime.start.p0(i64 8, ptr %15) #24
  %16 = load ptr, ptr %4, align 8, !tbaa !29
  %17 = getelementptr inbounds nuw %struct.sockaddr, ptr %16, i32 0, i32 0
  %18 = load i16, ptr %17, align 2, !tbaa !96
  %19 = zext i16 %18 to i32
  %20 = call i64 @rsock_intern_family(i32 noundef %19)
  store i64 %20, ptr %15, align 8, !tbaa !31
  %21 = load i64, ptr %15, align 8, !tbaa !31
  %22 = icmp ne i64 %21, 0
  br i1 %22, label %23, label %27

23:                                               ; preds = %3
  %24 = load i64, ptr %15, align 8, !tbaa !31
  %25 = call i64 @rb_id2str(i64 noundef %24)
  %26 = call i64 @rb_str_dup(i64 noundef %25)
  store i64 %26, ptr %7, align 8, !tbaa !31
  br label %33

27:                                               ; preds = %3
  %28 = load ptr, ptr %4, align 8, !tbaa !29
  %29 = getelementptr inbounds nuw %struct.sockaddr, ptr %28, i32 0, i32 0
  %30 = load i16, ptr %29, align 2, !tbaa !96
  %31 = zext i16 %30 to i32
  %32 = call i64 (ptr, ...) @rb_sprintf(ptr noundef @.str.7, i32 noundef %31)
  store i64 %32, ptr %7, align 8, !tbaa !31
  br label %33

33:                                               ; preds = %27, %23
  store i64 4, ptr %9, align 8, !tbaa !31
  %34 = load i32, ptr %6, align 4, !tbaa !27
  %35 = icmp ne i32 %34, 0
  br i1 %35, label %47, label %36

36:                                               ; preds = %33
  %37 = load ptr, ptr %4, align 8, !tbaa !29
  %38 = load i32, ptr %5, align 4, !tbaa !27
  %39 = getelementptr inbounds [1024 x i8], ptr %13, i64 0, i64 0
  %40 = call i32 @rb_getnameinfo(ptr noundef %37, i32 noundef %38, ptr noundef %39, i64 noundef 1024, ptr noundef null, i64 noundef 0, i32 noundef 0)
  store i32 %40, ptr %12, align 4, !tbaa !27
  %41 = load i32, ptr %12, align 4, !tbaa !27
  %42 = icmp ne i32 %41, 0
  br i1 %42, label %46, label %43

43:                                               ; preds = %36
  %44 = getelementptr inbounds [1024 x i8], ptr %13, i64 0, i64 0
  %45 = call i64 @rb_str_new_cstr(ptr noundef %44)
  store i64 %45, ptr %9, align 8, !tbaa !31
  br label %46

46:                                               ; preds = %43, %36
  br label %47

47:                                               ; preds = %46, %33
  %48 = load ptr, ptr %4, align 8, !tbaa !29
  %49 = load i32, ptr %5, align 4, !tbaa !27
  %50 = getelementptr inbounds [1024 x i8], ptr %13, i64 0, i64 0
  %51 = getelementptr inbounds [1024 x i8], ptr %14, i64 0, i64 0
  %52 = call i32 @rb_getnameinfo(ptr noundef %48, i32 noundef %49, ptr noundef %50, i64 noundef 1024, ptr noundef %51, i64 noundef 1024, i32 noundef 3)
  store i32 %52, ptr %12, align 4, !tbaa !27
  %53 = load i32, ptr %12, align 4, !tbaa !27
  %54 = icmp ne i32 %53, 0
  br i1 %54, label %55, label %57

55:                                               ; preds = %47
  %56 = load i32, ptr %12, align 4, !tbaa !27
  call void @rsock_raise_resolution_error(ptr noundef @.str.8, i32 noundef %56) #27
  unreachable

57:                                               ; preds = %47
  %58 = getelementptr inbounds [1024 x i8], ptr %13, i64 0, i64 0
  %59 = call i64 @rb_str_new_cstr(ptr noundef %58)
  store i64 %59, ptr %10, align 8, !tbaa !31
  %60 = load i64, ptr %9, align 8, !tbaa !31
  %61 = icmp eq i64 %60, 4
  br i1 %61, label %62, label %64

62:                                               ; preds = %57
  %63 = load i64, ptr %10, align 8, !tbaa !31
  store i64 %63, ptr %9, align 8, !tbaa !31
  br label %64

64:                                               ; preds = %62, %57
  %65 = getelementptr inbounds [1024 x i8], ptr %14, i64 0, i64 0
  %66 = call i32 @atoi(ptr noundef %65) #30
  %67 = sext i32 %66 to i64
  %68 = call i64 @RB_INT2FIX(i64 noundef %67) #28
  store i64 %68, ptr %8, align 8, !tbaa !31
  %69 = load i64, ptr %7, align 8, !tbaa !31
  %70 = load i64, ptr %8, align 8, !tbaa !31
  %71 = load i64, ptr %9, align 8, !tbaa !31
  %72 = load i64, ptr %10, align 8, !tbaa !31
  %73 = call i64 (i64, ...) @rb_ary_new_from_args(i64 noundef 4, i64 noundef %69, i64 noundef %70, i64 noundef %71, i64 noundef %72)
  store i64 %73, ptr %11, align 8, !tbaa !31
  %74 = load i64, ptr %11, align 8, !tbaa !31
  call void @llvm.lifetime.end.p0(i64 8, ptr %15) #24
  call void @llvm.lifetime.end.p0(i64 1024, ptr %14) #24
  call void @llvm.lifetime.end.p0(i64 1024, ptr %13) #24
  call void @llvm.lifetime.end.p0(i64 4, ptr %12) #24
  call void @llvm.lifetime.end.p0(i64 8, ptr %11) #24
  call void @llvm.lifetime.end.p0(i64 8, ptr %10) #24
  call void @llvm.lifetime.end.p0(i64 8, ptr %9) #24
  call void @llvm.lifetime.end.p0(i64 8, ptr %8) #24
  call void @llvm.lifetime.end.p0(i64 8, ptr %7) #24
  ret i64 %74
}