; Function Attrs: nounwind sspstrong uwtable
define i64 @rsock_ipaddr(ptr noundef readonly captures(none) %0, i32 noundef %1, i32 noundef %2) local_unnamed_addr #0 {
  %4 = alloca [1024 x i8], align 16
  %5 = alloca [1024 x i8], align 16
  call void @llvm.lifetime.start.p0(i64 1024, ptr nonnull %4) #21
  call void @llvm.lifetime.start.p0(i64 1024, ptr nonnull %5) #21
  %6 = load i16, ptr %0, align 2, !tbaa !91
  %7 = zext i16 %6 to i32
  %8 = tail call i64 @rsock_intern_family(i32 noundef %7) #21
  %.not = icmp eq i64 %8, 0
  br i1 %.not, label %12, label %9

9:                                                ; preds = %3
  %10 = tail call i64 @rb_id2str(i64 noundef %8) #21
  %11 = tail call i64 @rb_str_dup(i64 noundef %10) #21
  br label %16

12:                                               ; preds = %3
  %13 = load i16, ptr %0, align 2, !tbaa !91
  %14 = zext i16 %13 to i32
  %15 = tail call i64 (ptr, ...) @rb_sprintf(ptr noundef nonnull @.str.7, i32 noundef %14) #21
  br label %16

16:                                               ; preds = %12, %9
  %.0 = phi i64 [ %11, %9 ], [ %15, %12 ]
  %.not21 = icmp eq i32 %2, 0
  br i1 %.not21, label %17, label %21

17:                                               ; preds = %16
  %18 = call i32 @rb_getnameinfo(ptr noundef nonnull %0, i32 noundef %1, ptr noundef nonnull %4, i64 noundef 1024, ptr noundef null, i64 noundef 0, i32 noundef 0)
  %.not22 = icmp eq i32 %18, 0
  br i1 %.not22, label %19, label %21

19:                                               ; preds = %17
  %20 = call i64 @rb_str_new_cstr(ptr noundef nonnull %4) #21
  br label %21

21:                                               ; preds = %17, %19, %16
  %.018 = phi i64 [ 4, %16 ], [ 4, %17 ], [ %20, %19 ]
  %22 = call i32 @rb_getnameinfo(ptr noundef nonnull %0, i32 noundef %1, ptr noundef nonnull %4, i64 noundef 1024, ptr noundef nonnull %5, i64 noundef 1024, i32 noundef 3)
  %.not23 = icmp eq i32 %22, 0
  br i1 %.not23, label %24, label %23

23:                                               ; preds = %21
  call void @rsock_raise_resolution_error(ptr noundef nonnull @.str.8, i32 noundef %22) #23
  unreachable

24:                                               ; preds = %21
  %25 = call i64 @rb_str_new_cstr(ptr noundef nonnull %4) #21
  %26 = icmp eq i64 %.018, 4
  %spec.select = select i1 %26, i64 %25, i64 %.018
  %27 = call i64 @strtol(ptr noundef nonnull captures(none) %5, ptr noundef null, i32 noundef 10) #21
  %sext = shl i64 %27, 32
  %28 = ashr exact i64 %sext, 31
  %29 = or disjoint i64 %28, 1
  %30 = call i64 (i64, ...) @rb_ary_new_from_args(i64 noundef 4, i64 noundef %.0, i64 noundef %29, i64 noundef %spec.select, i64 noundef %25) #21
  call void @llvm.lifetime.end.p0(i64 1024, ptr nonnull %5) #21
  call void @llvm.lifetime.end.p0(i64 1024, ptr nonnull %4) #21
  ret i64 %30
}